; Function Attrs: mustprogress uwtable
define noalias noundef ptr @rocksdb_backup_engine_open_opts(ptr noundef nonnull %0, ptr noundef readonly captures(none) %1, ptr noundef captures(none) %2) local_unnamed_addr #0 personality ptr @__gxx_personality_v0 {
  %4 = alloca ptr, align 8
  %5 = alloca %"class.rocksdb::IOStatus", align 8
  call void @llvm.lifetime.start.p0(i64 8, ptr nonnull %4) #43
  call void @llvm.lifetime.start.p0(i64 16, ptr nonnull %5) #43
  %6 = load ptr, ptr %1, align 8, !tbaa !121
  call void @_ZN7rocksdb12BackupEngine4OpenERKNS_19BackupEngineOptionsEPNS_3EnvEPPS0_(ptr dead_on_unwind nonnull writable sret(%"class.rocksdb::IOStatus") align 8 %5, ptr noundef nonnull align 8 dereferenceable(149) %0, ptr noundef %6, ptr noundef nonnull %4)
  %7 = invoke fastcc noundef zeroext i1 @_ZL9SaveErrorPPcRKN7rocksdb6StatusE(ptr noundef %2, ptr noundef nonnull align 8 dereferenceable(16) %5)
          to label %8 unwind label %11

8:                                                ; preds = %3
  %9 = getelementptr inbounds nuw i8, ptr %5, i64 8
  %10 = load ptr, ptr %9, align 8, !tbaa !25
  %.not.i.i = icmp eq ptr %10, null
  br i1 %.not.i.i, label %_ZN7rocksdb6StatusD2Ev.exit, label %_ZNKSt14default_deleteIA_KcEclIS0_EENSt9enable_ifIXsr14is_convertibleIPA_T_PS1_EE5valueEvE4typeEPS5_.exit.i.i

_ZNKSt14default_deleteIA_KcEclIS0_EENSt9enable_ifIXsr14is_convertibleIPA_T_PS1_EE5valueEvE4typeEPS5_.exit.i.i: ; preds = %8
  call void @_ZdaPv(ptr noundef nonnull %10) #45
  br label %_ZN7rocksdb6StatusD2Ev.exit

_ZN7rocksdb6StatusD2Ev.exit:                      ; preds = %8, %_ZNKSt14default_deleteIA_KcEclIS0_EENSt9enable_ifIXsr14is_convertibleIPA_T_PS1_EE5valueEvE4typeEPS5_.exit.i.i
  call void @llvm.lifetime.end.p0(i64 16, ptr nonnull %5) #43
  br i1 %7, label %18, label %15

11:                                               ; preds = %3
  %12 = landingpad { ptr, i32 }
          cleanup
  %13 = getelementptr inbounds nuw i8, ptr %5, i64 8
  %14 = load ptr, ptr %13, align 8, !tbaa !25
  %.not.i.i7 = icmp eq ptr %14, null
  br i1 %.not.i.i7, label %_ZN7rocksdb6StatusD2Ev.exit9, label %_ZNKSt14default_deleteIA_KcEclIS0_EENSt9enable_ifIXsr14is_convertibleIPA_T_PS1_EE5valueEvE4typeEPS5_.exit.i.i8

_ZNKSt14default_deleteIA_KcEclIS0_EENSt9enable_ifIXsr14is_convertibleIPA_T_PS1_EE5valueEvE4typeEPS5_.exit.i.i8: ; preds = %11
  call void @_ZdaPv(ptr noundef nonnull %14) #45
  br label %_ZN7rocksdb6StatusD2Ev.exit9

_ZN7rocksdb6StatusD2Ev.exit9:                     ; preds = %11, %_ZNKSt14default_deleteIA_KcEclIS0_EENSt9enable_ifIXsr14is_convertibleIPA_T_PS1_EE5valueEvE4typeEPS5_.exit.i.i8
  call void @llvm.lifetime.end.p0(i64 16, ptr nonnull %5) #43
  call void @llvm.lifetime.end.p0(i64 8, ptr nonnull %4) #43
  resume { ptr, i32 } %12

15:                                               ; preds = %_ZN7rocksdb6StatusD2Ev.exit
  %16 = call noalias noundef nonnull dereferenceable(8) ptr @_Znwm(i64 noundef 8) #46
  %17 = load ptr, ptr %4, align 8, !tbaa !117
  store ptr %17, ptr %16, align 8, !tbaa !119
  br label %18

18:                                               ; preds = %_ZN7rocksdb6StatusD2Ev.exit, %15
  %.0 = phi ptr [ %16, %15 ], [ null, %_ZN7rocksdb6StatusD2Ev.exit ]
  call void @llvm.lifetime.end.p0(i64 8, ptr nonnull %4) #43
  ret ptr %.0
}